Certificate:
    Data:
        Version: 3 (0x2)
        Serial Number: 1 (0x1)
    Signature Algorithm: sha256WithRSAEncryption
        Issuer: C=US, ST=California, L=Los Angeles, O=Ografy, OU=Ografy CA, CN=dev.ografy.io
        Validity
            Not Before: Jun 18 01:52:07 2015 GMT
            Not After : Jun 17 01:52:07 2016 GMT
        Subject: C=US, ST=California, L=Los Angeles, O=Ografy, OU=Ografy CA, CN=dev.ografy.io
        Subject Public Key Info:
            Public Key Algorithm: rsaEncryption
                Public-Key: (2048 bit)
                Modulus:
                    00:cc:75:76:42:b8:dd:c7:c6:f3:71:f4:50:dd:b3:
                    5b:02:bf:c9:cf:5e:7f:2d:e4:ed:fe:cc:29:52:1a:
                    e1:a0:67:96:24:c8:11:ea:9a:11:25:6f:18:da:28:
                    86:d7:ea:8b:dd:4b:99:26:fe:12:3c:15:c6:fe:5c:
                    f0:a5:40:7d:62:56:de:56:9b:ba:5a:80:e3:a2:04:
                    a1:c6:7c:21:0f:c9:3d:0a:82:eb:66:01:9f:20:e4:
                    d6:02:12:42:df:e8:3e:6d:ff:9b:ec:69:6b:24:28:
                    9e:24:58:f7:9f:22:27:05:09:2c:d4:d0:6c:15:81:
                    d1:74:c6:ad:5e:93:ea:79:f3:65:a2:7a:6d:38:ed:
                    93:43:99:7b:45:4d:c1:82:e4:de:4b:10:b6:95:52:
                    f4:80:4b:6c:c0:02:83:af:de:a7:9f:c0:d1:f8:9f:
                    36:06:29:39:44:4e:38:27:56:2b:d9:33:4a:c8:15:
                    62:75:69:99:93:90:0d:07:d2:fc:03:a4:f1:0a:3c:
                    00:61:5b:61:f5:c0:54:5c:01:2e:01:9e:7b:71:19:
                    6d:f9:94:3e:5c:b7:32:2f:12:16:42:e1:ef:cd:b7:
                    10:e1:e0:da:39:45:56:7b:a9:34:1b:68:22:7f:62:
                    8c:13:cb:5e:4d:5b:81:e3:f8:ee:ef:41:96:24:a2:
                    2a:95
                Exponent: 3 (0x3)
        X509v3 extensions:
            X509v3 Basic Constraints: 
                CA:FALSE
            X509v3 Key Usage: 
                Digital Signature, Non Repudiation, Key Encipherment
            Netscape Comment: 
                8===D ~~ ~~
            X509v3 Subject Key Identifier: 
                E8:F6:EA:F4:C0:75:A8:F5:C9:28:8A:FA:86:65:92:88:F6:8E:A6:02
            X509v3 Authority Key Identifier: 
                keyid:9B:EF:A1:38:2E:D3:E6:33:85:CB:9B:FE:C7:20:42:AA:73:24:34:56

            X509v3 Subject Alternative Name: 
                DNS:ografy.io, DNS:*.ografy.io
    Signature Algorithm: sha256WithRSAEncryption
         4b:e3:91:60:1b:a4:89:46:f2:88:04:c4:7b:a5:72:02:6f:40:
         1c:08:88:51:69:c0:ce:33:dd:01:c6:dc:76:63:db:85:24:9d:
         cb:c2:4c:d1:a8:6f:09:99:a3:87:af:d9:d0:bc:b7:53:bf:7b:
         34:10:bd:38:e9:6d:32:55:ef:b9:31:f8:cb:ee:45:8e:de:59:
         d0:13:e3:d9:1f:17:d7:5a:fe:1d:4b:52:75:ad:20:2a:fe:9b:
         27:5d:16:df:f7:bc:b0:22:99:1d:95:af:8c:3a:54:a0:e5:63:
         f3:5c:e4:02:cf:e6:e1:96:e6:dc:07:cb:57:13:5f:e5:d2:14:
         97:12:23:b7:e9:17:0a:24:e1:a3:8b:5c:44:df:89:ad:2d:3a:
         cd:77:a6:70:84:ef:2d:8c:d3:24:f8:69:69:fa:e1:3c:59:a9:
         50:72:d1:b4:71:df:c1:fa:db:15:76:7d:15:1d:cc:ac:50:7c:
         70:49:98:0a:0d:84:6f:37:69:23:65:90:0e:99:9e:af:d6:ba:
         b1:5c:75:3e:9e:fa:c4:2e:b7:d4:e4:a6:d6:bd:b2:3d:a8:7b:
         f0:38:f9:6d:43:cf:c7:7f:07:97:b0:10:9c:67:0d:33:f5:f0:
         b2:ea:38:52:57:a0:24:25:ab:b5:dc:c1:b2:fa:a4:36:ae:72:
         7e:1d:ed:37
-----BEGIN CERTIFICATE-----
MIID/jCCAuagAwIBAgIBATANBgkqhkiG9w0BAQsFADB1MQswCQYDVQQGEwJVUzET
MBEGA1UECAwKQ2FsaWZvcm5pYTEUMBIGA1UEBwwLTG9zIEFuZ2VsZXMxDzANBgNV
BAoMBk9ncmFmeTESMBAGA1UECwwJT2dyYWZ5IENBMRYwFAYDVQQDDA1kZXYub2dy
YWZ5LmlvMB4XDTE1MDYxODAxNTIwN1oXDTE2MDYxNzAxNTIwN1owdTELMAkGA1UE
BhMCVVMxEzARBgNVBAgMCkNhbGlmb3JuaWExFDASBgNVBAcMC0xvcyBBbmdlbGVz
MQ8wDQYDVQQKDAZPZ3JhZnkxEjAQBgNVBAsMCU9ncmFmeSBDQTEWMBQGA1UEAwwN
ZGV2Lm9ncmFmeS5pbzCCASAwDQYJKoZIhvcNAQEBBQADggENADCCAQgCggEBAMx1
dkK43cfG83H0UN2zWwK/yc9efy3k7f7MKVIa4aBnliTIEeqaESVvGNoohtfqi91L
mSb+EjwVxv5c8KVAfWJW3labulqA46IEocZ8IQ/JPQqC62YBnyDk1gISQt/oPm3/
m+xpayQoniRY958iJwUJLNTQbBWB0XTGrV6T6nnzZaJ6bTjtk0OZe0VNwYLk3ksQ
tpVS9IBLbMACg6/ep5/A0fifNgYpOUROOCdWK9kzSsgVYnVpmZOQDQfS/AOk8Qo8
AGFbYfXAVFwBLgGee3EZbfmUPly3Mi8SFkLh7823EOHg2jlFVnupNBtoIn9ijBPL
Xk1bgeP47u9BliSiKpUCAQOjgZowgZcwCQYDVR0TBAIwADALBgNVHQ8EBAMCBeAw
GgYJYIZIAYb4QgENBA0WCzg9PT1EIH5+IH5+MB0GA1UdDgQWBBTo9ur0wHWo9cko
ivqGZZKI9o6mAjAfBgNVHSMEGDAWgBSb76E4LtPmM4XLm/7HIEKqcyQ0VjAhBgNV
HREEGjAYgglvZ3JhZnkuaW+CCyoub2dyYWZ5LmlvMA0GCSqGSIb3DQEBCwUAA4IB
AQBL45FgG6SJRvKIBMR7pXICb0AcCIhRacDOM90Bxtx2Y9uFJJ3LwkzRqG8JmaOH
r9nQvLdTv3s0EL046W0yVe+5MfjL7kWO3lnQE+PZHxfXWv4dS1J1rSAq/psnXRbf
97ywIpkdla+MOlSg5WPzXOQCz+bhlubcB8tXE1/l0hSXEiO36RcKJOGji1xE34mt
LTrNd6ZwhO8tjNMk+Glp+uE8WalQctG0cd/B+tsVdn0VHcysUHxwSZgKDYRvN2kj
ZZAOmZ6v1rqxXHU+nvrELrfU5KbWvbI9qHvwOPltQ8/HfweXsBCcZw0z9fCy6jhS
V6AkJau13MGy+qQ2rnJ+He03
-----END CERTIFICATE-----
